target datalayout = "e-m:e-p270:32:32-p271:32:32-p272:64:64-i64:64-i128:128-f80:128-n8:16:32:64-S128"
target triple = "x86_64-pc-linux-gnu"

; Function Attrs: nounwind uwtable
define internal i32 @ascii_to_ucs2(ptr noundef %0, i64 noundef %1, ptr noundef %2, ptr noundef %3) #0 {
  %5 = alloca i32, align 4
  %6 = alloca ptr, align 8
  %7 = alloca i64, align 8
  %8 = alloca ptr, align 8
  %9 = alloca ptr, align 8
  %10 = alloca ptr, align 8
  %11 = alloca i64, align 8
  %12 = alloca i64, align 8
  %13 = alloca i32, align 4
  store ptr %0, ptr %6, align 8, !tbaa !11
  store i64 %1, ptr %7, align 8, !tbaa !15
  store ptr %2, ptr %8, align 8, !tbaa !27
  store ptr %3, ptr %9, align 8, !tbaa !29
  call void @llvm.lifetime.start.p0(i64 8, ptr %10) #8
  call void @llvm.lifetime.start.p0(i64 8, ptr %11) #8
  call void @llvm.lifetime.start.p0(i64 8, ptr %12) #8
  %14 = load i64, ptr %7, align 8, !tbaa !15
  %15 = mul i64 %14, 2
  %16 = add i64 %15, 2
  store i64 %16, ptr %11, align 8, !tbaa !15
  %17 = load i64, ptr %11, align 8, !tbaa !15
  %18 = load i64, ptr %7, align 8, !tbaa !15
  %19 = icmp ult i64 %17, %18
  br i1 %19, label %20, label %21

20:                                               ; preds = %4
  store i32 0, ptr %5, align 4
  store i32 1, ptr %13, align 4
  br label %62

21:                                               ; preds = %4
  %22 = load i64, ptr %11, align 8, !tbaa !15
  %23 = call noalias ptr @malloc(i64 noundef %22) #10
  store ptr %23, ptr %10, align 8, !tbaa !11
  %24 = load ptr, ptr %10, align 8, !tbaa !11
  %25 = icmp eq ptr %24, null
  br i1 %25, label %26, label %27

26:                                               ; preds = %21
  store i32 0, ptr %5, align 4
  store i32 1, ptr %13, align 4
  br label %62

27:                                               ; preds = %21
  store i64 0, ptr %12, align 8, !tbaa !15
  br label %28

28:                                               ; preds = %46, %27
  %29 = load i64, ptr %12, align 8, !tbaa !15
  %30 = load i64, ptr %11, align 8, !tbaa !15
  %31 = sub i64 %30, 2
  %32 = icmp ult i64 %29, %31
  br i1 %32, label %33, label %49

33:                                               ; preds = %28
  %34 = load ptr, ptr %10, align 8, !tbaa !11
  %35 = load i64, ptr %12, align 8, !tbaa !15
  %36 = getelementptr inbounds nuw i8, ptr %34, i64 %35
  store i8 0, ptr %36, align 1, !tbaa !65
  %37 = load ptr, ptr %6, align 8, !tbaa !11
  %38 = load i64, ptr %12, align 8, !tbaa !15
  %39 = lshr i64 %38, 1
  %40 = getelementptr inbounds nuw i8, ptr %37, i64 %39
  %41 = load i8, ptr %40, align 1, !tbaa !65
  %42 = load ptr, ptr %10, align 8, !tbaa !11
  %43 = load i64, ptr %12, align 8, !tbaa !15
  %44 = add i64 %43, 1
  %45 = getelementptr inbounds nuw i8, ptr %42, i64 %44
  store i8 %41, ptr %45, align 1, !tbaa !65
  br label %46

46:                                               ; preds = %33
  %47 = load i64, ptr %12, align 8, !tbaa !15
  %48 = add i64 %47, 2
  store i64 %48, ptr %12, align 8, !tbaa !15
  br label %28, !llvm.loop !66

49:                                               ; preds = %28
  %50 = load ptr, ptr %10, align 8, !tbaa !11
  %51 = load i64, ptr %11, align 8, !tbaa !15
  %52 = sub i64 %51, 2
  %53 = getelementptr inbounds nuw i8, ptr %50, i64 %52
  store i8 0, ptr %53, align 1, !tbaa !65
  %54 = load ptr, ptr %10, align 8, !tbaa !11
  %55 = load i64, ptr %11, align 8, !tbaa !15
  %56 = sub i64 %55, 1
  %57 = getelementptr inbounds nuw i8, ptr %54, i64 %56
  store i8 0, ptr %57, align 1, !tbaa !65
  %58 = load i64, ptr %11, align 8, !tbaa !15
  %59 = load ptr, ptr %9, align 8, !tbaa !29
  store i64 %58, ptr %59, align 8, !tbaa !15
  %60 = load ptr, ptr %10, align 8, !tbaa !11
  %61 = load ptr, ptr %8, align 8, !tbaa !27
  store ptr %60, ptr %61, align 8, !tbaa !11
  store i32 1, ptr %5, align 4
  store i32 1, ptr %13, align 4
  br label %62

62:                                               ; preds = %49, %26, %20
  call void @llvm.lifetime.end.p0(i64 8, ptr %12) #8
  call void @llvm.lifetime.end.p0(i64 8, ptr %11) #8
  call void @llvm.lifetime.end.p0(i64 8, ptr %10) #8
  %63 = load i32, ptr %5, align 4
  ret i32 %63
}