; Function Attrs: nofree nounwind memory(write, argmem: readwrite, inaccessiblemem: readwrite) uwtable
define internal fastcc range(i32 0, 2) i32 @ascii_to_ucs2(ptr noundef readonly captures(none) %0, i64 noundef %1, ptr noundef nonnull writeonly captures(none) %2, ptr noundef nonnull writeonly captures(none) %3) unnamed_addr #5 {
  %5 = shl i64 %1, 1
  %6 = add i64 %5, 2
  %7 = icmp ult i64 %6, %1
  br i1 %7, label %22, label %8

8:                                                ; preds = %4
  %9 = tail call noalias ptr @malloc(i64 noundef %6) #14
  %10 = icmp eq ptr %9, null
  br i1 %10, label %22, label %.preheader

.preheader:                                       ; preds = %8
  %.not = icmp eq i64 %5, 0
  br i1 %.not, label %._crit_edge, label %.lr.ph

.lr.ph:                                           ; preds = %.preheader, %.lr.ph
  %.026 = phi i64 [ %17, %.lr.ph ], [ 0, %.preheader ]
  %11 = getelementptr inbounds nuw i8, ptr %9, i64 %.026
  store i8 0, ptr %11, align 1, !tbaa !27
  %12 = lshr exact i64 %.026, 1
  %13 = getelementptr inbounds nuw i8, ptr %0, i64 %12
  %14 = load i8, ptr %13, align 1, !tbaa !27
  %15 = or disjoint i64 %.026, 1
  %16 = getelementptr inbounds nuw i8, ptr %9, i64 %15
  store i8 %14, ptr %16, align 1, !tbaa !27
  %17 = add nuw i64 %.026, 2
  %18 = icmp ult i64 %17, %5
  br i1 %18, label %.lr.ph, label %._crit_edge, !llvm.loop !28

._crit_edge:                                      ; preds = %.lr.ph, %.preheader
  %19 = getelementptr inbounds nuw i8, ptr %9, i64 %5
  store i8 0, ptr %19, align 1, !tbaa !27
  %20 = or disjoint i64 %5, 1
  %21 = getelementptr inbounds nuw i8, ptr %9, i64 %20
  store i8 0, ptr %21, align 1, !tbaa !27
  store i64 %6, ptr %3, align 8, !tbaa !11
  store ptr %9, ptr %2, align 8, !tbaa !6
  br label %22

22:                                               ; preds = %8, %4, %._crit_edge
  %.022 = phi i32 [ 1, %._crit_edge ], [ 0, %4 ], [ 0, %8 ]
  ret i32 %.022
}